; Function Attrs: nounwind sspstrong uwtable
define internal range(i64 1, 4294967296) i64 @sock_connect(i64 noundef %0, i64 noundef %1) #0 {
  %3 = alloca i64, align 8
  %4 = alloca i64, align 8
  store i64 %1, ptr %3, align 8, !tbaa !10
  call void @llvm.lifetime.start.p0(i64 8, ptr nonnull %4) #16
  %5 = call i64 @rsock_sockaddr_string_value_with_addrinfo(ptr noundef nonnull %3, ptr noundef nonnull %4) #16
  %6 = load i64, ptr %3, align 8, !tbaa !10
  %7 = call i64 @rb_str_new_frozen(i64 noundef %6) #16
  store i64 %7, ptr %3, align 8, !tbaa !10
  %8 = inttoptr i64 %7 to ptr
  %9 = load i64, ptr %8, align 8, !tbaa !12, !noalias !40
  %10 = and i64 %9, 8192
  %.not.i.i = icmp eq i64 %10, 0
  %11 = getelementptr inbounds nuw i8, ptr %8, i64 24
  br i1 %.not.i.i, label %RSTRING_PTR.exit, label %12

12:                                               ; preds = %2
  %.sroa.2.0.copyload.i = load ptr, ptr %11, align 8
  br label %RSTRING_PTR.exit

RSTRING_PTR.exit:                                 ; preds = %2, %12
  %.sroa.2.0.i = phi ptr [ %.sroa.2.0.copyload.i, %12 ], [ %11, %2 ]
  %13 = getelementptr inbounds nuw i8, ptr %8, i64 16
  %14 = load i64, ptr %13, align 8, !tbaa !17
  %15 = add i64 %14, 2147483648
  %.not.i.i3 = icmp ult i64 %15, 4294967296
  br i1 %.not.i.i3, label %RSTRING_LENINT.exit, label %16

16:                                               ; preds = %RSTRING_PTR.exit
  call void @rb_out_of_int(i64 noundef %14) #20
  unreachable

RSTRING_LENINT.exit:                              ; preds = %RSTRING_PTR.exit
  %17 = trunc i64 %14 to i32
  %18 = call i32 @rsock_connect(i64 noundef %0, ptr noundef %.sroa.2.0.i, i32 noundef %17, i32 noundef 0, i64 noundef 4) #16
  %19 = icmp slt i32 %18, 0
  br i1 %19, label %20, label %23

20:                                               ; preds = %RSTRING_LENINT.exit
  %21 = load i64, ptr %3, align 8, !tbaa !10
  %22 = load i64, ptr %4, align 8, !tbaa !10
  call void @rsock_sys_fail_raddrinfo_or_sockaddr(ptr noundef nonnull @.str.40, i64 noundef %21, i64 noundef %22) #17
  unreachable

23:                                               ; preds = %RSTRING_LENINT.exit
  %24 = shl nuw i32 %18, 1
  %25 = or disjoint i32 %24, 1
  %26 = zext i32 %25 to i64
  call void @llvm.lifetime.end.p0(i64 8, ptr nonnull %4) #16
  ret i64 %26
}